; Function Attrs: mustprogress uwtable
define dso_local noundef ptr @_ZN18DFSRndNumGenerator21make_rndnum_generatorEv() local_unnamed_addr #6 align 2 personality ptr @__gxx_personality_v0 {
  %1 = alloca %"class.std::__cxx11::basic_string", align 8
  %2 = alloca %"class.std::vector.3", align 8
  %3 = load ptr, ptr @_ZN18DFSRndNumGenerator5impl_E, align 8
  %.not = icmp eq ptr %3, null
  br i1 %.not, label %4, label %45

4:                                                ; preds = %0
  %5 = tail call noundef ptr @_ZN15SequenceFactory13make_sequenceEv()
  %6 = tail call noalias noundef nonnull dereferenceable(96) ptr @_Znwm(i64 noundef 96) #20
  invoke void @_ZN18DFSRndNumGeneratorC2EP8Sequence(ptr noundef nonnull align 8 dereferenceable(96) %6, ptr noundef %5)
          to label %7 unwind label %35

7:                                                ; preds = %4
  store ptr %6, ptr @_ZN18DFSRndNumGenerator5impl_E, align 8
  call void @_ZN9CGOptions18dfs_debug_sequenceB5cxx11Ev(ptr dead_on_unwind nonnull writable sret(%"class.std::__cxx11::basic_string") align 8 %1)
  %8 = call noundef zeroext i1 @_ZNKSt7__cxx1112basic_stringIcSt11char_traitsIcESaIcEE5emptyEv(ptr noundef nonnull align 8 dereferenceable(32) %1) #18
  br i1 %8, label %_ZNSt6vectorIiSaIiEED2Ev.exit8, label %9

9:                                                ; preds = %7
  call void @llvm.memset.p0.i64(ptr noundef nonnull align 8 dereferenceable(24) %2, i8 0, i64 24, i1 false)
  %10 = load i8, ptr @_ZN15SequenceFactory17current_sep_char_E, align 1
  %11 = invoke noundef zeroext i1 @_ZN18SequenceLineParserISt6vectorIiSaIiEEE14parse_sequenceERS2_RKNSt7__cxx1112basic_stringIcSt11char_traitsIcESaIcEEEc(ptr noundef nonnull align 8 dereferenceable(24) %2, ptr noundef nonnull align 8 dereferenceable(32) %1, i8 noundef signext %10)
          to label %12 unwind label %.loopexit.split-lp

12:                                               ; preds = %9
  %13 = getelementptr inbounds i8, ptr %2, i64 8
  %14 = load ptr, ptr %13, align 8
  %15 = load ptr, ptr %2, align 8
  %.not.i = icmp eq ptr %14, %15
  br i1 %.not.i, label %_ZN18DFSRndNumGenerator19initialize_sequenceERKSt6vectorIiSaIiEE.exit, label %.lr.ph.i

.lr.ph.i:                                         ; preds = %12
  %16 = load ptr, ptr @_ZN18DFSRndNumGenerator5impl_E, align 8
  %17 = getelementptr inbounds i8, ptr %16, i64 56
  br label %18

18:                                               ; preds = %.noexc, %.lr.ph.i
  %19 = phi ptr [ %15, %.lr.ph.i ], [ %29, %.noexc ]
  %.06.i = phi i64 [ 0, %.lr.ph.i ], [ %27, %.noexc ]
  %20 = load ptr, ptr %17, align 8
  %21 = getelementptr inbounds i32, ptr %19, i64 %.06.i
  %22 = load i32, ptr %21, align 4
  %23 = trunc i64 %.06.i to i32
  %24 = load ptr, ptr %20, align 8
  %25 = getelementptr inbounds i8, ptr %24, i64 32
  %26 = load ptr, ptr %25, align 8
  invoke void %26(ptr noundef nonnull align 8 dereferenceable(8) %20, i32 noundef %22, i32 noundef 0, i32 noundef %23)
          to label %.noexc unwind label %.loopexit

.noexc:                                           ; preds = %18
  %27 = add nuw i64 %.06.i, 1
  %28 = load ptr, ptr %13, align 8
  %29 = load ptr, ptr %2, align 8
  %30 = ptrtoint ptr %28 to i64
  %31 = ptrtoint ptr %29 to i64
  %32 = sub i64 %30, %31
  %33 = ashr exact i64 %32, 2
  %34 = icmp ult i64 %27, %33
  br i1 %34, label %18, label %_ZN18DFSRndNumGenerator19initialize_sequenceERKSt6vectorIiSaIiEE.exit, !llvm.loop !8

35:                                               ; preds = %4
  %36 = landingpad { ptr, i32 }
          cleanup
  tail call void @_ZdlPv(ptr noundef nonnull %6) #19
  br label %46

.loopexit:                                        ; preds = %18
  %lpad.loopexit = landingpad { ptr, i32 }
          cleanup
  br label %37

.loopexit.split-lp:                               ; preds = %9
  %lpad.loopexit.split-lp = landingpad { ptr, i32 }
          cleanup
  br label %37

37:                                               ; preds = %.loopexit.split-lp, %.loopexit
  %lpad.phi = phi { ptr, i32 } [ %lpad.loopexit, %.loopexit ], [ %lpad.loopexit.split-lp, %.loopexit.split-lp ]
  %38 = load ptr, ptr %2, align 8
  %.not.i.i.i = icmp eq ptr %38, null
  br i1 %.not.i.i.i, label %_ZNSt6vectorIiSaIiEED2Ev.exit, label %39

39:                                               ; preds = %37
  call void @_ZdlPv(ptr noundef nonnull %38) #19
  br label %_ZNSt6vectorIiSaIiEED2Ev.exit

_ZNSt6vectorIiSaIiEED2Ev.exit:                    ; preds = %37, %39
  call void @_ZNSt7__cxx1112basic_stringIcSt11char_traitsIcESaIcEED1Ev(ptr noundef nonnull align 8 dereferenceable(32) %1) #18
  br label %46

_ZN18DFSRndNumGenerator19initialize_sequenceERKSt6vectorIiSaIiEE.exit: ; preds = %.noexc, %12
  %40 = phi ptr [ %14, %12 ], [ %29, %.noexc ]
  %41 = load ptr, ptr @_ZN18DFSRndNumGenerator5impl_E, align 8
  %42 = getelementptr inbounds i8, ptr %41, i64 64
  store i8 1, ptr %42, align 8
  %.not.i.i.i7 = icmp eq ptr %40, null
  br i1 %.not.i.i.i7, label %_ZNSt6vectorIiSaIiEED2Ev.exit8, label %43

43:                                               ; preds = %_ZN18DFSRndNumGenerator19initialize_sequenceERKSt6vectorIiSaIiEE.exit
  call void @_ZdlPv(ptr noundef nonnull %40) #19
  br label %_ZNSt6vectorIiSaIiEED2Ev.exit8

_ZNSt6vectorIiSaIiEED2Ev.exit8:                   ; preds = %43, %_ZN18DFSRndNumGenerator19initialize_sequenceERKSt6vectorIiSaIiEE.exit, %7
  %44 = load ptr, ptr @_ZN18DFSRndNumGenerator5impl_E, align 8
  call void @_ZNSt7__cxx1112basic_stringIcSt11char_traitsIcESaIcEED1Ev(ptr noundef nonnull align 8 dereferenceable(32) %1) #18
  br label %45

45:                                               ; preds = %0, %_ZNSt6vectorIiSaIiEED2Ev.exit8
  %.04 = phi ptr [ %44, %_ZNSt6vectorIiSaIiEED2Ev.exit8 ], [ %3, %0 ]
  ret ptr %.04

46:                                               ; preds = %_ZNSt6vectorIiSaIiEED2Ev.exit, %35
  %.pn = phi { ptr, i32 } [ %lpad.phi, %_ZNSt6vectorIiSaIiEED2Ev.exit ], [ %36, %35 ]
  resume { ptr, i32 } %.pn
}